target datalayout = "e-m:e-p270:32:32-p271:32:32-p272:64:64-i64:64-i128:128-f80:128-n8:16:32:64-S128"
target triple = "x86_64-pc-linux-gnu"

; Function Attrs: nounwind uwtable
define internal void @scale1d_2t1_ps(ptr noundef %0, i32 noundef %1, i32 noundef %2, i32 noundef %3, ptr noundef %4, i32 noundef %5, i32 noundef %6, i32 noundef %7) #0 {
  %9 = alloca ptr, align 8
  %10 = alloca i32, align 4
  %11 = alloca i32, align 4
  %12 = alloca i32, align 4
  %13 = alloca ptr, align 8
  %14 = alloca i32, align 4
  %15 = alloca i32, align 4
  %16 = alloca i32, align 4
  %17 = alloca ptr, align 8
  store ptr %0, ptr %9, align 8
  store i32 %1, ptr %10, align 4
  store i32 %2, ptr %11, align 4
  store i32 %3, ptr %12, align 4
  store ptr %4, ptr %13, align 8
  store i32 %5, ptr %14, align 4
  store i32 %6, ptr %15, align 4
  store i32 %7, ptr %16, align 4
  %18 = load ptr, ptr %13, align 8
  %19 = load i32, ptr %16, align 4
  %20 = load i32, ptr %14, align 4
  %21 = mul i32 %19, %20
  %22 = zext i32 %21 to i64
  %23 = getelementptr inbounds i8, ptr %18, i64 %22
  store ptr %23, ptr %17, align 8
  %24 = load i32, ptr %10, align 4
  %25 = mul nsw i32 %24, 2
  store i32 %25, ptr %10, align 4
  br label %26

26:                                               ; preds = %30, %8
  %27 = load ptr, ptr %13, align 8
  %28 = load ptr, ptr %17, align 8
  %29 = icmp ult ptr %27, %28
  br i1 %29, label %30, label %42

30:                                               ; preds = %26
  %31 = load ptr, ptr %9, align 8
  %32 = load i8, ptr %31, align 1
  %33 = load ptr, ptr %13, align 8
  store i8 %32, ptr %33, align 1
  %34 = load i32, ptr %10, align 4
  %35 = load ptr, ptr %9, align 8
  %36 = sext i32 %34 to i64
  %37 = getelementptr inbounds i8, ptr %35, i64 %36
  store ptr %37, ptr %9, align 8
  %38 = load i32, ptr %14, align 4
  %39 = load ptr, ptr %13, align 8
  %40 = sext i32 %38 to i64
  %41 = getelementptr inbounds i8, ptr %39, i64 %40
  store ptr %41, ptr %13, align 8
  br label %26, !llvm.loop !17

42:                                               ; preds = %26
  ret void
}