; Function Attrs: nofree norecurse nosync nounwind memory(argmem: readwrite) uwtable
define internal void @scale1d_2t1_ps(ptr nocapture noundef readonly %0, i32 noundef %1, i32 %2, i32 %3, ptr noundef writeonly %4, i32 noundef %5, i32 %6, i32 noundef %7) unnamed_addr #3 {
  %9 = mul i32 %7, %5
  %10 = zext i32 %9 to i64
  %11 = getelementptr inbounds i8, ptr %4, i64 %10
  %.not = icmp eq i32 %9, 0
  br i1 %.not, label %._crit_edge, label %.lr.ph

.lr.ph:                                           ; preds = %8
  %12 = shl nsw i32 %1, 1
  %13 = sext i32 %12 to i64
  %14 = sext i32 %5 to i64
  br label %15

15:                                               ; preds = %.lr.ph, %15
  %.013 = phi ptr [ %0, %.lr.ph ], [ %17, %15 ]
  %.01112 = phi ptr [ %4, %.lr.ph ], [ %18, %15 ]
  %16 = load i8, ptr %.013, align 1
  store i8 %16, ptr %.01112, align 1
  %17 = getelementptr inbounds i8, ptr %.013, i64 %13
  %18 = getelementptr inbounds i8, ptr %.01112, i64 %14
  %19 = icmp ult ptr %18, %11
  br i1 %19, label %15, label %._crit_edge, !llvm.loop !20

._crit_edge:                                      ; preds = %15, %8
  ret void
}